target datalayout = "e-m:e-p270:32:32-p271:32:32-p272:64:64-i64:64-i128:128-f80:128-n8:16:32:64-S128"
target triple = "x86_64-pc-linux-gnu"

%struct.pg_enc2name = type { ptr, i32 }
%struct.ForEachState = type { ptr, i32 }
%struct.ConvProcInfo = type { i32, i32, %struct.FmgrInfo, %struct.FmgrInfo }
%struct.FmgrInfo = type { ptr, i32, i16, i8, i8, i8, ptr, ptr, ptr }
%struct.List = type { i32, i32, i32, ptr, [0 x %union.ListCell] }
%union.ListCell = type { ptr }

@backend_startup_complete = internal global i8 0, align 1
@TopMemoryContext = external global ptr, align 8
@ConvProcList = internal global ptr null, align 8
@CurrentMemoryContext = external global ptr, align 8
@DatabaseEncoding = internal global ptr @pg_enc2name_tbl, align 8

; Function Attrs: inlinehint nounwind uwtable
define internal ptr @MemoryContextSwitchTo(ptr noundef %0) #0 {
  %2 = alloca ptr, align 8
  %3 = alloca ptr, align 8
  store ptr %0, ptr %2, align 8
  call void @llvm.lifetime.start.p0(i64 8, ptr %3) #9
  %4 = load ptr, ptr @CurrentMemoryContext, align 8
  store ptr %4, ptr %3, align 8
  %5 = load ptr, ptr %2, align 8
  store ptr %5, ptr @CurrentMemoryContext, align 8
  %6 = load ptr, ptr %3, align 8
  call void @llvm.lifetime.end.p0(i64 8, ptr %3) #9
  ret ptr %6
}

; Function Attrs: nounwind uwtable
define dso_local i32 @GetDatabaseEncoding() #1 {
  %1 = load ptr, ptr @DatabaseEncoding, align 8
  %2 = getelementptr inbounds nuw %struct.pg_enc2name, ptr %1, i32 0, i32 1
  %3 = load i32, ptr %2, align 8
  ret i32 %3
}

; Function Attrs: nounwind uwtable
define dso_local i32 @PrepareClientEncoding(i32 noundef %0) #1 {
  %2 = alloca i32, align 4
  %3 = alloca i32, align 4
  %4 = alloca i32, align 4
  %5 = alloca ptr, align 8
  %6 = alloca i32, align 4
  %7 = alloca i32, align 4
  %8 = alloca i32, align 4
  %9 = alloca ptr, align 8
  %10 = alloca ptr, align 8
  %11 = alloca %struct.ForEachState, align 8
  %12 = alloca ptr, align 8
  store i32 %0, ptr %3, align 4
  call void @llvm.lifetime.start.p0(i64 4, ptr %4) #9
  call void @llvm.lifetime.start.p0(i64 8, ptr %5) #9
  %13 = load i32, ptr %3, align 4
  %14 = icmp sge i32 %13, 0
  br i1 %14, label %15, label %18

15:                                               ; preds = %1
  %16 = load i32, ptr %3, align 4
  %17 = icmp slt i32 %16, 42
  br i1 %17, label %19, label %18

18:                                               ; preds = %15, %1
  store i32 -1, ptr %2, align 4
  store i32 1, ptr %6, align 4
  br label %133

19:                                               ; preds = %15
  %20 = load i8, ptr @backend_startup_complete, align 1, !range !4, !noundef !5
  %21 = trunc i8 %20 to i1
  br i1 %21, label %23, label %22

22:                                               ; preds = %19
  store i32 0, ptr %2, align 4
  store i32 1, ptr %6, align 4
  br label %133

23:                                               ; preds = %19
  %24 = call i32 @GetDatabaseEncoding()
  store i32 %24, ptr %4, align 4
  %25 = load i32, ptr %4, align 4
  %26 = load i32, ptr %3, align 4
  %27 = icmp eq i32 %25, %26
  br i1 %27, label %34, label %28

28:                                               ; preds = %23
  %29 = load i32, ptr %4, align 4
  %30 = icmp eq i32 %29, 0
  br i1 %30, label %34, label %31

31:                                               ; preds = %28
  %32 = load i32, ptr %3, align 4
  %33 = icmp eq i32 %32, 0
  br i1 %33, label %34, label %35

34:                                               ; preds = %31, %28, %23
  store i32 0, ptr %2, align 4
  store i32 1, ptr %6, align 4
  br label %133

35:                                               ; preds = %31
  %36 = call zeroext i1 @IsTransactionState()
  br i1 %36, label %37, label %76

37:                                               ; preds = %35
  call void @llvm.lifetime.start.p0(i64 4, ptr %7) #9
  call void @llvm.lifetime.start.p0(i64 4, ptr %8) #9
  call void @llvm.lifetime.start.p0(i64 8, ptr %9) #9
  call void @llvm.lifetime.start.p0(i64 8, ptr %10) #9
  %38 = load i32, ptr %3, align 4
  %39 = load i32, ptr %4, align 4
  %40 = call i32 @FindDefaultConversionProc(i32 noundef %38, i32 noundef %39)
  store i32 %40, ptr %7, align 4
  %41 = load i32, ptr %7, align 4
  %42 = icmp ne i32 %41, 0
  br i1 %42, label %44, label %43

43:                                               ; preds = %37
  store i32 -1, ptr %2, align 4
  store i32 1, ptr %6, align 4
  br label %75

44:                                               ; preds = %37
  %45 = load i32, ptr %4, align 4
  %46 = load i32, ptr %3, align 4
  %47 = call i32 @FindDefaultConversionProc(i32 noundef %45, i32 noundef %46)
  store i32 %47, ptr %8, align 4
  %48 = load i32, ptr %8, align 4
  %49 = icmp ne i32 %48, 0
  br i1 %49, label %51, label %50

50:                                               ; preds = %44
  store i32 -1, ptr %2, align 4
  store i32 1, ptr %6, align 4
  br label %75

51:                                               ; preds = %44
  %52 = load ptr, ptr @TopMemoryContext, align 8
  %53 = call ptr @MemoryContextAlloc(ptr noundef %52, i64 noundef 104)
  store ptr %53, ptr %9, align 8
  %54 = load i32, ptr %4, align 4
  %55 = load ptr, ptr %9, align 8
  %56 = getelementptr inbounds nuw %struct.ConvProcInfo, ptr %55, i32 0, i32 0
  store i32 %54, ptr %56, align 8
  %57 = load i32, ptr %3, align 4
  %58 = load ptr, ptr %9, align 8
  %59 = getelementptr inbounds nuw %struct.ConvProcInfo, ptr %58, i32 0, i32 1
  store i32 %57, ptr %59, align 4
  %60 = load i32, ptr %7, align 4
  %61 = load ptr, ptr %9, align 8
  %62 = getelementptr inbounds nuw %struct.ConvProcInfo, ptr %61, i32 0, i32 2
  %63 = load ptr, ptr @TopMemoryContext, align 8
  call void @fmgr_info_cxt(i32 noundef %60, ptr noundef %62, ptr noundef %63)
  %64 = load i32, ptr %8, align 4
  %65 = load ptr, ptr %9, align 8
  %66 = getelementptr inbounds nuw %struct.ConvProcInfo, ptr %65, i32 0, i32 3
  %67 = load ptr, ptr @TopMemoryContext, align 8
  call void @fmgr_info_cxt(i32 noundef %64, ptr noundef %66, ptr noundef %67)
  %68 = load ptr, ptr @TopMemoryContext, align 8
  %69 = call ptr @MemoryContextSwitchTo(ptr noundef %68)
  store ptr %69, ptr %10, align 8
  %70 = load ptr, ptr %9, align 8
  %71 = load ptr, ptr @ConvProcList, align 8
  %72 = call ptr @lcons(ptr noundef %70, ptr noundef %71)
  store ptr %72, ptr @ConvProcList, align 8
  %73 = load ptr, ptr %10, align 8
  %74 = call ptr @MemoryContextSwitchTo(ptr noundef %73)
  store i32 0, ptr %2, align 4
  store i32 1, ptr %6, align 4
  br label %75

75:                                               ; preds = %51, %50, %43
  call void @llvm.lifetime.end.p0(i64 8, ptr %10) #9
  call void @llvm.lifetime.end.p0(i64 8, ptr %9) #9
  call void @llvm.lifetime.end.p0(i64 4, ptr %8) #9
  call void @llvm.lifetime.end.p0(i64 4, ptr %7) #9
  br label %133

76:                                               ; preds = %35
  call void @llvm.lifetime.start.p0(i64 16, ptr %11) #9
  %77 = getelementptr inbounds nuw %struct.ForEachState, ptr %11, i32 0, i32 0
  %78 = load ptr, ptr @ConvProcList, align 8
  store ptr %78, ptr %77, align 8
  %79 = getelementptr inbounds nuw %struct.ForEachState, ptr %11, i32 0, i32 1
  store i32 0, ptr %79, align 8
  %80 = getelementptr i8, ptr %11, i64 12
  call void @llvm.memset.p0.i64(ptr align 4 %80, i8 0, i64 4, i1 false)
  br label %81

81:                                               ; preds = %126, %76
  %82 = getelementptr inbounds nuw %struct.ForEachState, ptr %11, i32 0, i32 0
  %83 = load ptr, ptr %82, align 8
  %84 = icmp ne ptr %83, null
  br i1 %84, label %85, label %102

85:                                               ; preds = %81
  %86 = getelementptr inbounds nuw %struct.ForEachState, ptr %11, i32 0, i32 1
  %87 = load i32, ptr %86, align 8
  %88 = getelementptr inbounds nuw %struct.ForEachState, ptr %11, i32 0, i32 0
  %89 = load ptr, ptr %88, align 8
  %90 = getelementptr inbounds nuw %struct.List, ptr %89, i32 0, i32 1
  %91 = load i32, ptr %90, align 4
  %92 = icmp slt i32 %87, %91
  br i1 %92, label %93, label %102

93:                                               ; preds = %85
  %94 = getelementptr inbounds nuw %struct.ForEachState, ptr %11, i32 0, i32 0
  %95 = load ptr, ptr %94, align 8
  %96 = getelementptr inbounds nuw %struct.List, ptr %95, i32 0, i32 3
  %97 = load ptr, ptr %96, align 8
  %98 = getelementptr inbounds nuw %struct.ForEachState, ptr %11, i32 0, i32 1
  %99 = load i32, ptr %98, align 8
  %100 = sext i32 %99 to i64
  %101 = getelementptr inbounds %union.ListCell, ptr %97, i64 %100
  store ptr %101, ptr %5, align 8
  br label %103

102:                                              ; preds = %85, %81
  store ptr null, ptr %5, align 8
  br label %103

103:                                              ; preds = %102, %93
  %104 = phi i32 [ 1, %93 ], [ 0, %102 ]
  %105 = icmp ne i32 %104, 0
  br i1 %105, label %107, label %106

106:                                              ; preds = %103
  store i32 2, ptr %6, align 4
  br label %130

107:                                              ; preds = %103
  call void @llvm.lifetime.start.p0(i64 8, ptr %12) #9
  %108 = load ptr, ptr %5, align 8
  %109 = load ptr, ptr %108, align 8
  store ptr %109, ptr %12, align 8
  %110 = load ptr, ptr %12, align 8
  %111 = getelementptr inbounds nuw %struct.ConvProcInfo, ptr %110, i32 0, i32 0
  %112 = load i32, ptr %111, align 8
  %113 = load i32, ptr %4, align 4
  %114 = icmp eq i32 %112, %113
  br i1 %114, label %115, label %122

115:                                              ; preds = %107
  %116 = load ptr, ptr %12, align 8
  %117 = getelementptr inbounds nuw %struct.ConvProcInfo, ptr %116, i32 0, i32 1
  %118 = load i32, ptr %117, align 4
  %119 = load i32, ptr %3, align 4
  %120 = icmp eq i32 %118, %119
  br i1 %120, label %121, label %122

121:                                              ; preds = %115
  store i32 0, ptr %2, align 4
  store i32 1, ptr %6, align 4
  br label %123

122:                                              ; preds = %115, %107
  store i32 0, ptr %6, align 4
  br label %123

123:                                              ; preds = %122, %121
  call void @llvm.lifetime.end.p0(i64 8, ptr %12) #9
  %124 = load i32, ptr %6, align 4
  switch i32 %124, label %130 [
    i32 0, label %125
  ]

125:                                              ; preds = %123
  br label %126

126:                                              ; preds = %125
  %127 = getelementptr inbounds nuw %struct.ForEachState, ptr %11, i32 0, i32 1
  %128 = load i32, ptr %127, align 8
  %129 = add i32 %128, 1
  store i32 %129, ptr %127, align 8
  br label %81, !llvm.loop !6

130:                                              ; preds = %123, %106
  call void @llvm.lifetime.end.p0(i64 16, ptr %11) #9
  %131 = load i32, ptr %6, align 4
  switch i32 %131, label %133 [
    i32 2, label %132
  ]

132:                                              ; preds = %130
  store i32 -1, ptr %2, align 4
  store i32 1, ptr %6, align 4
  br label %133

133:                                              ; preds = %132, %130, %75, %34, %22, %18
  call void @llvm.lifetime.end.p0(i64 8, ptr %5) #9
  call void @llvm.lifetime.end.p0(i64 4, ptr %4) #9
  %134 = load i32, ptr %2, align 4
  ret i32 %134
}