; Function Attrs: nounwind uwtable
define dso_local range(i32 -1, 1) i32 @PrepareClientEncoding(i32 noundef %0) local_unnamed_addr #0 {
  %or.cond = icmp ult i32 %0, 42
  br i1 %or.cond, label %2, label %.loopexit

2:                                                ; preds = %1
  %.b47 = load i1, ptr @backend_startup_complete, align 1
  br i1 %.b47, label %3, label %.loopexit

3:                                                ; preds = %2
  %4 = load ptr, ptr @DatabaseEncoding, align 8
  %5 = getelementptr inbounds nuw i8, ptr %4, i64 8
  %6 = load i32, ptr %5, align 8
  %7 = icmp eq i32 %6, %0
  %8 = icmp eq i32 %6, 0
  %or.cond4 = or i1 %7, %8
  %9 = icmp eq i32 %0, 0
  %or.cond6 = or i1 %9, %or.cond4
  br i1 %or.cond6, label %.loopexit, label %10

10:                                               ; preds = %3
  %11 = tail call zeroext i1 @IsTransactionState() #13
  br i1 %11, label %12, label %28

12:                                               ; preds = %10
  %13 = tail call i32 @FindDefaultConversionProc(i32 noundef %0, i32 noundef %6) #13
  %.not49 = icmp eq i32 %13, 0
  br i1 %.not49, label %.loopexit, label %14

14:                                               ; preds = %12
  %15 = tail call i32 @FindDefaultConversionProc(i32 noundef %6, i32 noundef %0) #13
  %.not50 = icmp eq i32 %15, 0
  br i1 %.not50, label %.loopexit, label %16

16:                                               ; preds = %14
  %17 = load ptr, ptr @TopMemoryContext, align 8
  %18 = tail call ptr @MemoryContextAlloc(ptr noundef %17, i64 noundef 104) #13
  store i32 %6, ptr %18, align 8
  %19 = getelementptr inbounds nuw i8, ptr %18, i64 4
  store i32 %0, ptr %19, align 4
  %20 = getelementptr inbounds nuw i8, ptr %18, i64 8
  %21 = load ptr, ptr @TopMemoryContext, align 8
  tail call void @fmgr_info_cxt(i32 noundef %13, ptr noundef nonnull %20, ptr noundef %21) #13
  %22 = getelementptr inbounds nuw i8, ptr %18, i64 56
  %23 = load ptr, ptr @TopMemoryContext, align 8
  tail call void @fmgr_info_cxt(i32 noundef %15, ptr noundef nonnull %22, ptr noundef %23) #13
  %24 = load ptr, ptr @TopMemoryContext, align 8
  %25 = load ptr, ptr @CurrentMemoryContext, align 8
  store ptr %24, ptr @CurrentMemoryContext, align 8
  %26 = load ptr, ptr @ConvProcList, align 8
  %27 = tail call ptr @lcons(ptr noundef nonnull %18, ptr noundef %26) #13
  store ptr %27, ptr @ConvProcList, align 8
  store ptr %25, ptr @CurrentMemoryContext, align 8
  br label %.loopexit

28:                                               ; preds = %10
  %29 = load ptr, ptr @ConvProcList, align 8
  %.not = icmp eq ptr %29, null
  br i1 %.not, label %.loopexit, label %.lr.ph

.lr.ph:                                           ; preds = %28
  %30 = getelementptr inbounds nuw i8, ptr %29, i64 4
  %31 = load i32, ptr %30, align 4
  %32 = icmp sgt i32 %31, 0
  br i1 %32, label %.lr.ph64, label %.loopexit

.lr.ph64:                                         ; preds = %.lr.ph
  %33 = getelementptr inbounds nuw i8, ptr %29, i64 16
  %34 = load ptr, ptr %33, align 8
  %wide.trip.count = zext nneg i32 %31 to i64
  br label %35

35:                                               ; preds = %.lr.ph64, %.critedge
  %indvars.iv = phi i64 [ 0, %.lr.ph64 ], [ %indvars.iv.next, %.critedge ]
  %36 = getelementptr inbounds nuw %union.ListCell, ptr %34, i64 %indvars.iv
  %37 = load ptr, ptr %36, align 8
  %38 = load i32, ptr %37, align 8
  %39 = icmp eq i32 %38, %6
  br i1 %39, label %40, label %.critedge

40:                                               ; preds = %35
  %41 = getelementptr inbounds nuw i8, ptr %37, i64 4
  %42 = load i32, ptr %41, align 4
  %43 = icmp eq i32 %42, %0
  br i1 %43, label %.loopexit, label %.critedge

.critedge:                                        ; preds = %40, %35
  %indvars.iv.next = add nuw nsw i64 %indvars.iv, 1
  %exitcond.not = icmp eq i64 %indvars.iv.next, %wide.trip.count
  br i1 %exitcond.not, label %.loopexit, label %35

.loopexit:                                        ; preds = %.critedge, %40, %28, %.lr.ph, %16, %12, %14, %3, %2, %1
  %.0 = phi i32 [ -1, %1 ], [ 0, %2 ], [ 0, %3 ], [ 0, %16 ], [ -1, %12 ], [ -1, %14 ], [ -1, %28 ], [ -1, %.lr.ph ], [ -1, %.critedge ], [ 0, %40 ]
  ret i32 %.0
}